target datalayout = "e-m:e-p270:32:32-p271:32:32-p272:64:64-i64:64-i128:128-f80:128-n8:16:32:64-S128"
target triple = "x86_64-pc-linux-gnu"

%"class.google::protobuf::StringPiece" = type { ptr, i64 }

@.str.8 = private unnamed_addr constant [8 x i8] c"parsing\00", align 1

; Function Attrs: mustprogress nounwind uwtable
define linkonce_odr noundef i64 @_ZNK6google8protobuf11StringPiece6lengthEv(ptr noundef nonnull align 8 dereferenceable(16) %0) #7 comdat align 2 {
  %2 = alloca ptr, align 8
  store ptr %0, ptr %2, align 8, !tbaa !90
  %3 = load ptr, ptr %2, align 8
  %4 = getelementptr inbounds nuw %"class.google::protobuf::StringPiece", ptr %3, i32 0, i32 1
  %5 = load i64, ptr %4, align 8, !tbaa !92
  ret i64 %5
}

; Function Attrs: mustprogress nounwind uwtable
define linkonce_odr noundef ptr @_ZNK6google8protobuf11StringPiece4dataEv(ptr noundef nonnull align 8 dereferenceable(16) %0) #7 comdat align 2 {
  %2 = alloca ptr, align 8
  store ptr %0, ptr %2, align 8, !tbaa !90
  %3 = load ptr, ptr %2, align 8
  %4 = getelementptr inbounds nuw %"class.google::protobuf::StringPiece", ptr %3, i32 0, i32 0
  %5 = load ptr, ptr %4, align 8, !tbaa !94
  ret ptr %5
}

; Function Attrs: inlinehint mustprogress uwtable
define linkonce_odr noundef zeroext i1 @_ZN6google8protobuf8internal23IsStructurallyValidUTF8ENS0_11StringPieceE(ptr %0, i64 %1) #6 comdat {
  %3 = alloca %"class.google::protobuf::StringPiece", align 8
  %4 = getelementptr inbounds nuw { ptr, i64 }, ptr %3, i32 0, i32 0
  store ptr %0, ptr %4, align 8
  %5 = getelementptr inbounds nuw { ptr, i64 }, ptr %3, i32 0, i32 1
  store i64 %1, ptr %5, align 8
  %6 = call noundef ptr @_ZNK6google8protobuf11StringPiece4dataEv(ptr noundef nonnull align 8 dereferenceable(16) %3)
  %7 = call noundef i64 @_ZNK6google8protobuf11StringPiece6lengthEv(ptr noundef nonnull align 8 dereferenceable(16) %3)
  %8 = trunc i64 %7 to i32
  %9 = call noundef zeroext i1 @_ZN6google8protobuf8internal23IsStructurallyValidUTF8EPKci(ptr noundef %6, i32 noundef %8)
  ret i1 %9
}

; Function Attrs: mustprogress uwtable
define noundef zeroext i1 @_ZN6google8protobuf8internal10VerifyUTF8ENS0_11StringPieceEPKc(ptr %0, i64 %1, ptr noundef %2) #4 {
  %4 = alloca i1, align 1
  %5 = alloca %"class.google::protobuf::StringPiece", align 8
  %6 = alloca ptr, align 8
  %7 = alloca %"class.google::protobuf::StringPiece", align 8
  %8 = getelementptr inbounds nuw { ptr, i64 }, ptr %5, i32 0, i32 0
  store ptr %0, ptr %8, align 8
  %9 = getelementptr inbounds nuw { ptr, i64 }, ptr %5, i32 0, i32 1
  store i64 %1, ptr %9, align 8
  store ptr %2, ptr %6, align 8, !tbaa !16
  call void @llvm.memcpy.p0.p0.i64(ptr align 8 %7, ptr align 8 %5, i64 16, i1 false), !tbaa.struct !117
  %10 = getelementptr inbounds nuw { ptr, i64 }, ptr %7, i32 0, i32 0
  %11 = load ptr, ptr %10, align 8
  %12 = getelementptr inbounds nuw { ptr, i64 }, ptr %7, i32 0, i32 1
  %13 = load i64, ptr %12, align 8
  %14 = call noundef zeroext i1 @_ZN6google8protobuf8internal23IsStructurallyValidUTF8ENS0_11StringPieceE(ptr %11, i64 %13)
  br i1 %14, label %17, label %15

15:                                               ; preds = %3
  %16 = load ptr, ptr %6, align 8, !tbaa !16
  call void @_ZN6google8protobuf8internal17PrintUTF8ErrorLogEPKcS3_b(ptr noundef %16, ptr noundef @.str.8, i1 noundef zeroext false)
  store i1 false, ptr %4, align 1
  br label %18

17:                                               ; preds = %3
  store i1 true, ptr %4, align 1
  br label %18

18:                                               ; preds = %17, %15
  %19 = load i1, ptr %4, align 1
  ret i1 %19
}